; Function Attrs: nounwind uwtable
define range(i32 0, 2) i32 @ossl_x509_set0_libctx(ptr noundef captures(address_is_null) %0, ptr noundef %1, ptr noundef %2) local_unnamed_addr #1 {
  %.not = icmp eq ptr %0, null
  br i1 %.not, label %11, label %4

4:                                                ; preds = %3
  %5 = getelementptr inbounds nuw i8, ptr %0, i64 368
  store ptr %1, ptr %5, align 8, !tbaa !3
  %6 = getelementptr inbounds nuw i8, ptr %0, i64 376
  %7 = load ptr, ptr %6, align 8, !tbaa !35
  tail call void @CRYPTO_free(ptr noundef %7, ptr noundef nonnull @.str.2, i32 noundef 150) #7
  store ptr null, ptr %6, align 8, !tbaa !35
  %.not11 = icmp eq ptr %2, null
  br i1 %.not11, label %11, label %8

8:                                                ; preds = %4
  %9 = tail call noalias ptr @CRYPTO_strdup(ptr noundef nonnull %2, ptr noundef nonnull @.str.2, i32 noundef 153) #7
  store ptr %9, ptr %6, align 8, !tbaa !35
  %10 = icmp eq ptr %9, null
  br i1 %10, label %12, label %11

11:                                               ; preds = %4, %8, %3
  br label %12

12:                                               ; preds = %8, %11
  %.0 = phi i32 [ 1, %11 ], [ 0, %8 ]
  ret i32 %.0
}